# SymbolsHelper-Confirmed: 5.78.0 alpha armel mips64el mipsel riscv64
libKF5NewStuffCore.so.5 libkf5newstuffcore5 #MINVER#
* Build-Depends-Package: libkf5newstuff-dev
 _ZN7KNSCore10ItemsModel10jobStartedEP4KJobRK7QString@Base 5.54.0
 _ZN7KNSCore10ItemsModel11qt_metacallEN11QMetaObject4CallEiPPv@Base 5.54.0
 _ZN7KNSCore10ItemsModel11qt_metacastEPKc@Base 5.54.0
 _ZN7KNSCore10ItemsModel11removeEntryERKNS_13EntryInternalE@Base 5.54.0
 _ZN7KNSCore10ItemsModel12clearEntriesEv@Base 5.54.0
 _ZN7KNSCore10ItemsModel16slotEntryChangedERKNS_13EntryInternalE@Base 5.54.0
 _ZN7KNSCore10ItemsModel16staticMetaObjectE@Base 5.54.0
 _ZN7KNSCore10ItemsModel17slotEntriesLoadedERK5QListINS_13EntryInternalEE@Base 5.54.0
 _ZN7KNSCore10ItemsModel22slotEntryPreviewLoadedERKNS_13EntryInternalENS1_11PreviewTypeE@Base 5.54.0
 _ZN7KNSCore10ItemsModel8addEntryERKNS_13EntryInternalE@Base 5.54.0
 _ZN7KNSCore10ItemsModelC1EPNS_6EngineEP7QObject@Base 5.54.0
 _ZN7KNSCore10ItemsModelC2EPNS_6EngineEP7QObject@Base 5.54.0
 _ZN7KNSCore10ItemsModelD0Ev@Base 5.54.0
 _ZN7KNSCore10ItemsModelD1Ev@Base 5.54.0
 _ZN7KNSCore10ItemsModelD2Ev@Base 5.54.0
 _ZN7KNSCore12AtticaHelper10checkLoginERK7QStringS3_@Base 5.54.0
 _ZN7KNSCore12AtticaHelper11loadContentERK7QString@Base 5.54.0
 _ZN7KNSCore12AtticaHelper11qt_metacallEN11QMetaObject4CallEiPPv@Base 5.54.0
 _ZN7KNSCore12AtticaHelper11qt_metacastEPKc@Base 5.54.0
 _ZN7KNSCore12AtticaHelper12loadCurrencyEv@Base 5.54.0
 _ZN7KNSCore12AtticaHelper12loadLicensesEv@Base 5.54.0
 _ZN7KNSCore12AtticaHelper12loginCheckedEb@Base 5.54.0
 _ZN7KNSCore12AtticaHelper13contentLoadedEPN6Attica7BaseJobE@Base 5.54.0
 _ZN7KNSCore12AtticaHelper13contentLoadedERKN6Attica7ContentE@Base 5.54.0
 _ZN7KNSCore12AtticaHelper13previewLoadedEiRK6QImage@Base 5.54.0
 _ZN7KNSCore12AtticaHelper14currencyLoadedEPN6Attica7BaseJobE@Base 5.54.0
 _ZN7KNSCore12AtticaHelper14currencyLoadedERK7QString@Base 5.54.0
 _ZN7KNSCore12AtticaHelper14licensesLoadedEPN6Attica7BaseJobE@Base 5.54.0
 _ZN7KNSCore12AtticaHelper14licensesLoadedERK5QListIN6Attica7LicenseEE@Base 5.54.0
 _ZN7KNSCore12AtticaHelper14loadCategoriesERK11QStringList@Base 5.54.0
 _ZN7KNSCore12AtticaHelper15addProviderFileERK4QUrl@Base 5.54.0
 _ZN7KNSCore12AtticaHelper15loadCredentialsER7QStringS2_@Base 5.54.0
 _ZN7KNSCore12AtticaHelper15loadDetailsLinkERK7QString@Base 5.54.0
 _ZN7KNSCore12AtticaHelper15providersLoadedERK11QStringList@Base 5.54.0
 _ZN7KNSCore12AtticaHelper15saveCredentialsERK7QStringS3_@Base 5.54.0
 _ZN7KNSCore12AtticaHelper15slotPreviewDataEP4KJobRK10QByteArray@Base 5.54.0
 _ZN7KNSCore12AtticaHelper16categoriesLoadedE5QListIN6Attica8CategoryEE@Base 5.54.0
 _ZN7KNSCore12AtticaHelper16categoriesLoadedEPN6Attica7BaseJobE@Base 5.54.0
 _ZN7KNSCore12AtticaHelper16staticMetaObjectE@Base 5.54.0
 _ZN7KNSCore12AtticaHelper17detailsLinkLoadedEPN6Attica7BaseJobE@Base 5.54.0
 _ZN7KNSCore12AtticaHelper17detailsLinkLoadedERK4QUrl@Base 5.54.0
 _ZN7KNSCore12AtticaHelper18checkLoginFinishedEPN6Attica7BaseJobE@Base 5.54.0
 _ZN7KNSCore12AtticaHelper18setCurrentProviderERK7QString@Base 5.54.0
 _ZN7KNSCore12AtticaHelper19slotPreviewDownloadEP4KJob@Base 5.54.0
 _ZN7KNSCore12AtticaHelper22defaultProvidersLoadedEv@Base 5.54.0
 _ZN7KNSCore12AtticaHelper24loadContentByCurrentUserEv@Base 5.54.0
 _ZN7KNSCore12AtticaHelper26contentByCurrentUserLoadedEPN6Attica7BaseJobE@Base 5.54.0
 _ZN7KNSCore12AtticaHelper26contentByCurrentUserLoadedERK5QListIN6Attica7ContentEE@Base 5.54.0
 _ZN7KNSCore12AtticaHelper4initEv@Base 5.54.0
 _ZN7KNSCore12AtticaHelper8providerEv@Base 5.54.0
 _ZN7KNSCore12AtticaHelperC1EP7QObject@Base 5.54.0
 _ZN7KNSCore12AtticaHelperC2EP7QObject@Base 5.54.0
 _ZN7KNSCore12EntryWrapper11qt_metacallEN11QMetaObject4CallEiPPv@Base 5.69.0
 _ZN7KNSCore12EntryWrapper11qt_metacastEPKc@Base 5.69.0
 _ZN7KNSCore12EntryWrapper16staticMetaObjectE@Base 5.69.0
 _ZN7KNSCore12EntryWrapperC1ERKNS_13EntryInternalEP7QObject@Base 5.69.0
 _ZN7KNSCore12EntryWrapperC2ERKNS_13EntryInternalEP7QObject@Base 5.69.0
 _ZN7KNSCore12EntryWrapperD0Ev@Base 5.69.0
 _ZN7KNSCore12EntryWrapperD1Ev@Base 5.69.0
 _ZN7KNSCore12EntryWrapperD2Ev@Base 5.69.0
 _ZN7KNSCore12Installation10readConfigERK12KConfigGroup@Base 5.54.0
 _ZN7KNSCore12Installation11qt_metacallEN11QMetaObject4CallEiPPv@Base 5.54.0
 _ZN7KNSCore12Installation11qt_metacastEPKc@Base 5.54.0
 _ZN7KNSCore12Installation14archiveEntriesERK7QStringPK17KArchiveDirectory@Base 5.54.0
 _ZN7KNSCore12Installation15downloadPayloadERKNS_13EntryInternalE@Base 5.54.0
 _ZN7KNSCore12Installation16staticMetaObjectE@Base 5.54.0
 _ZN7KNSCore12Installation17slotPayloadResultEP4KJob@Base 5.54.0
 _ZN7KNSCore12Installation18signalEntryChangedERKNS_13EntryInternalE@Base 5.54.0
 _ZN7KNSCore12Installation19signalPayloadLoadedE4QUrl@Base 5.54.0
 _ZN7KNSCore12Installation23signalInstallationErrorERK7QString@Base 5.70.0
 _ZN7KNSCore12Installation24signalInstallationFailedERK7QString@Base 5.54.0
 _ZN7KNSCore12Installation26runPostInstallationCommandERK7QString@Base 5.54.0
 _ZN7KNSCore12Installation26signalInstallationFinishedEv@Base 5.54.0
 _ZN7KNSCore12Installation28slotInstallationVerificationEi@Base 5.54.0
 _ZN7KNSCore12Installation34installDownloadedFileAndUncompressERKNS_13EntryInternalERK7QStringS4_@Base 5.54.0
 _ZN7KNSCore12Installation7installENS_13EntryInternalERK7QString@Base 5.54.0
 _ZN7KNSCore12Installation7installERKNS_13EntryInternalE@Base 5.54.0
 _ZN7KNSCore12Installation9uninstallENS_13EntryInternalE@Base 5.54.0
 _ZN7KNSCore12InstallationC1EP7QObject@Base 5.54.0
 _ZN7KNSCore12InstallationC2EP7QObject@Base 5.54.0
 _ZN7KNSCore13CommentsModel11qt_metacallEN11QMetaObject4CallEiPPv@Base 5.69.0
 _ZN7KNSCore13CommentsModel11qt_metacastEPKc@Base 5.69.0
 _ZN7KNSCore13CommentsModel12entryChangedEv@Base 5.69.0
 _ZN7KNSCore13CommentsModel16staticMetaObjectE@Base 5.69.0
 _ZN7KNSCore13CommentsModel8setEntryERKNS_13EntryInternalE@Base 5.69.0
 _ZN7KNSCore13CommentsModel9fetchMoreERK11QModelIndex@Base 5.69.0
 _ZN7KNSCore13CommentsModelC1EPNS_6EngineE@Base 5.69.0
 _ZN7KNSCore13CommentsModelC2EPNS_6EngineE@Base 5.69.0
 _ZN7KNSCore13CommentsModelD0Ev@Base 5.69.0
 _ZN7KNSCore13CommentsModelD1Ev@Base 5.69.0
 _ZN7KNSCore13CommentsModelD2Ev@Base 5.69.0
 _ZN7KNSCore13EntryInternal10setLicenseERK7QString@Base 5.54.0
 _ZN7KNSCore13EntryInternal10setPayloadERK7QString@Base 5.54.0
 _ZN7KNSCore13EntryInternal10setSummaryERK7QString@Base 5.54.0
 _ZN7KNSCore13EntryInternal10setVersionERK7QString@Base 5.54.0
 _ZN7KNSCore13EntryInternal11setCategoryERK7QString@Base 5.54.0
 _ZN7KNSCore13EntryInternal11setEntryXMLER16QXmlStreamReader@Base 5.54.0
 _ZN7KNSCore13EntryInternal11setEntryXMLERK11QDomElement@Base 5.54.0
 _ZN7KNSCore13EntryInternal11setHomepageERK4QUrl@Base 5.54.0
 _ZN7KNSCore13EntryInternal11setUniqueIdERK7QString@Base 5.54.0
 _ZN7KNSCore13EntryInternal12setChangelogERK7QString@Base 5.54.0
 _ZN7KNSCore13EntryInternal12setEntryTypeENS0_9EntryTypeE@Base 5.83.0
 _ZN7KNSCore13EntryInternal13setNumberFansEi@Base 5.54.0
 _ZN7KNSCore13EntryInternal13setPreviewUrlERK7QStringNS0_11PreviewTypeE@Base 5.54.0
 _ZN7KNSCore13EntryInternal13setProviderIdERK7QString@Base 5.54.0
 _ZN7KNSCore13EntryInternal14setReleaseDateERK5QDate@Base 5.54.0
 _ZN7KNSCore13EntryInternal15setDonationLinkERK7QString@Base 5.54.0
 _ZN7KNSCore13EntryInternal15setPreviewImageERK6QImageNS0_11PreviewTypeE@Base 5.54.0
 _ZN7KNSCore13EntryInternal15setShortSummaryERK7QString@Base 5.54.0
 _ZN7KNSCore13EntryInternal16setDownloadCountEi@Base 5.54.0
 _ZN7KNSCore13EntryInternal16setUpdateVersionERK7QString@Base 5.54.0
 _ZN7KNSCore13EntryInternal16staticMetaObjectE@Base 5.93.0
 _ZN7KNSCore13EntryInternal17setInstalledFilesERK11QStringList@Base 5.54.0
 _ZN7KNSCore13EntryInternal19setNumberOfCommentsEi@Base 5.54.0
 _ZN7KNSCore13EntryInternal19setUnInstalledFilesERK11QStringList@Base 5.54.0
 _ZN7KNSCore13EntryInternal20setKnowledgebaseLinkERK7QString@Base 5.54.0
 _ZN7KNSCore13EntryInternal20setUpdateReleaseDateERK5QDate@Base 5.54.0
 _ZN7KNSCore13EntryInternal28clearDownloadLinkInformationEv@Base 5.54.0
 _ZN7KNSCore13EntryInternal29appendDownloadLinkInformationERKNS0_23DownloadLinkInformationE@Base 5.54.0
 _ZN7KNSCore13EntryInternal29setNumberKnowledgebaseEntriesEi@Base 5.54.0
 _ZN7KNSCore13EntryInternal7setNameERK7QString@Base 5.54.0
 _ZN7KNSCore13EntryInternal7setTagsERK11QStringList@Base 5.54.0
 _ZN7KNSCore13EntryInternal9fromEntryERKN4KNS35EntryE@Base 5.54.0
 _ZN7KNSCore13EntryInternal9setAuthorERKNS_6AuthorE@Base 5.54.0
 _ZN7KNSCore13EntryInternal9setRatingEi@Base 5.54.0
 _ZN7KNSCore13EntryInternal9setSourceENS0_6SourceE@Base 5.54.0
 _ZN7KNSCore13EntryInternal9setStatusEN4KNS35Entry6StatusE@Base 5.54.0
 _ZN7KNSCore13EntryInternalC1ERKS0_@Base 5.54.0
 _ZN7KNSCore13EntryInternalC1Ev@Base 5.54.0
 _ZN7KNSCore13EntryInternalC2ERKS0_@Base 5.54.0
 _ZN7KNSCore13EntryInternalC2Ev@Base 5.54.0
 _ZN7KNSCore13EntryInternalD1Ev@Base 5.54.0
 _ZN7KNSCore13EntryInternalD2Ev@Base 5.54.0
 _ZN7KNSCore13EntryInternalaSERKS0_@Base 5.54.0
 _ZN7KNSCore13replaceBBCodeERK7QString@Base 5.54.0
 _ZN7KNSCore14ProvidersModel11qt_metacallEN11QMetaObject4CallEiPPv@Base 5.90.0
 _ZN7KNSCore14ProvidersModel11qt_metacastEPKc@Base 5.90.0
 _ZN7KNSCore14ProvidersModel13engineChangedEv@Base 5.90.0
 _ZN7KNSCore14ProvidersModel16staticMetaObjectE@Base 5.90.0
 _ZN7KNSCore14ProvidersModel9setEngineEP7QObject@Base 5.90.0
 _ZN7KNSCore14ProvidersModelC1EP7QObject@Base 5.90.0
 _ZN7KNSCore14ProvidersModelC2EP7QObject@Base 5.90.0
 _ZN7KNSCore14ProvidersModelD0Ev@Base 5.90.0
 _ZN7KNSCore14ProvidersModelD1Ev@Base 5.90.0
 _ZN7KNSCore14ProvidersModelD2Ev@Base 5.90.0
 _ZN7KNSCore15DownloadManager10errorFoundERK7QString@Base 5.54.0
 _ZN7KNSCore15DownloadManager11qt_metacallEN11QMetaObject4CallEiPPv@Base 5.54.0
 _ZN7KNSCore15DownloadManager11qt_metacastEPKc@Base 5.54.0
 _ZN7KNSCore15DownloadManager12installEntryERKNS_13EntryInternalE@Base 5.54.0
 _ZN7KNSCore15DownloadManager12searchResultERK5QListINS_13EntryInternalEE@Base 5.54.0
 _ZN7KNSCore15DownloadManager13setSearchTermERK7QString@Base 5.54.0
 _ZN7KNSCore15DownloadManager14fetchEntryByIdERK7QString@Base 5.54.0
 _ZN7KNSCore15DownloadManager14setSearchOrderENS0_9SortOrderE@Base 5.54.0
 _ZN7KNSCore15DownloadManager14uninstallEntryERKNS_13EntryInternalE@Base 5.54.0
 _ZN7KNSCore15DownloadManager15checkForUpdatesEv@Base 5.54.0
 _ZN7KNSCore15DownloadManager16staticMetaObjectE@Base 5.54.0
 _ZN7KNSCore15DownloadManager17checkForInstalledEv@Base 5.54.0
 _ZN7KNSCore15DownloadManager18entryStatusChangedERKNS_13EntryInternalE@Base 5.54.0
 _ZN7KNSCore15DownloadManager19slotProvidersLoadedEv@Base 5.54.0
 _ZN7KNSCore15DownloadManager6searchEii@Base 5.54.0
 _ZN7KNSCore15DownloadManagerC1EP7QObject@Base 5.54.0
 _ZN7KNSCore15DownloadManagerC1ERK7QStringP7QObject@Base 5.54.0
 _ZN7KNSCore15DownloadManagerC2EP7QObject@Base 5.54.0
 _ZN7KNSCore15DownloadManagerC2ERK7QStringP7QObject@Base 5.54.0
 _ZN7KNSCore15DownloadManagerD0Ev@Base 5.54.0
 _ZN7KNSCore15DownloadManagerD1Ev@Base 5.54.0
 _ZN7KNSCore15DownloadManagerD2Ev@Base 5.54.0
 _ZN7KNSCore15QuestionManager11askQuestionEPNS_8QuestionE@Base 5.54.0
 _ZN7KNSCore15QuestionManager11qt_metacallEN11QMetaObject4CallEiPPv@Base 5.54.0
 _ZN7KNSCore15QuestionManager11qt_metacastEPKc@Base 5.54.0
 _ZN7KNSCore15QuestionManager16staticMetaObjectE@Base 5.54.0
 _ZN7KNSCore15QuestionManager8instanceEv@Base 5.54.0
 _ZN7KNSCore15QuestionManagerC1Ev@Base 5.54.0
 _ZN7KNSCore15QuestionManagerC2Ev@Base 5.54.0
 _ZN7KNSCore15QuestionManagerD0Ev@Base 5.54.0
 _ZN7KNSCore15QuestionManagerD1Ev@Base 5.54.0
 _ZN7KNSCore15QuestionManagerD2Ev@Base 5.54.0
 _ZN7KNSCore16QuestionListener11askQuestionEPNS_8QuestionE@Base 5.54.0
 _ZN7KNSCore16QuestionListener11qt_metacallEN11QMetaObject4CallEiPPv@Base 5.54.0
 _ZN7KNSCore16QuestionListener11qt_metacastEPKc@Base 5.54.0
 _ZN7KNSCore16QuestionListener16staticMetaObjectE@Base 5.54.0
 _ZN7KNSCore16QuestionListenerC1EP7QObject@Base 5.54.0
 _ZN7KNSCore16QuestionListenerC2EP7QObject@Base 5.54.0
 _ZN7KNSCore16QuestionListenerD0Ev@Base 5.54.0
 _ZN7KNSCore16QuestionListenerD1Ev@Base 5.54.0
 _ZN7KNSCore16QuestionListenerD2Ev@Base 5.54.0
 _ZN7KNSCore16staticMetaObjectE@Base 5.54.0
 _ZN7KNSCore17TagsFilterChecker13filterAcceptsERK11QStringList@Base 5.54.0
 _ZN7KNSCore17TagsFilterCheckerC1ERK11QStringList@Base 5.54.0
 _ZN7KNSCore17TagsFilterCheckerC2ERK11QStringList@Base 5.54.0
 _ZN7KNSCore17TagsFilterCheckerD1Ev@Base 5.54.0
 _ZN7KNSCore17TagsFilterCheckerD2Ev@Base 5.54.0
 _ZN7KNSCore5Cache11qt_metacallEN11QMetaObject4CallEiPPv@Base 5.54.0
 _ZN7KNSCore5Cache11qt_metacastEPKc@Base 5.54.0
 _ZN7KNSCore5Cache12entryChangedERKNS_13EntryInternalE@Base 5.77.0
 _ZN7KNSCore5Cache12readRegistryEv@Base 5.54.0
 _ZN7KNSCore5Cache13insertRequestERKNS_8Provider13SearchRequestERK5QListINS_13EntryInternalEE@Base 5.54.0
 _ZN7KNSCore5Cache13writeRegistryEv@Base 5.54.0
 _ZN7KNSCore5Cache16requestFromCacheERKNS_8Provider13SearchRequestE@Base 5.54.0
 _ZN7KNSCore5Cache16staticMetaObjectE@Base 5.54.0
 _ZN7KNSCore5Cache17readKns2MetaFilesEv@Base 5.54.0
 _ZN7KNSCore5Cache19registryForProviderERK7QString@Base 5.54.0
 _ZN7KNSCore5Cache20registerChangedEntryERKNS_13EntryInternalE@Base 5.54.0
 _ZN7KNSCore5Cache20removeDeletedEntriesEv@Base 5.74.0
 _ZN7KNSCore5Cache8getCacheERK7QString@Base 5.54.0
 _ZN7KNSCore5CacheC1ERK7QString@Base 5.54.0
 _ZN7KNSCore5CacheC2ERK7QString@Base 5.54.0
 _ZN7KNSCore5CacheD0Ev@Base 5.54.0
 _ZN7KNSCore5CacheD1Ev@Base 5.54.0
 _ZN7KNSCore5CacheD2Ev@Base 5.54.0
 _ZN7KNSCore6Author11setHomepageERK7QString@Base 5.54.0
 _ZN7KNSCore6Author12setAvatarUrlERK4QUrl@Base 5.69.0
 _ZN7KNSCore6Author14setDescriptionERK7QString@Base 5.69.0
 _ZN7KNSCore6Author14setProfilepageERK7QString@Base 5.69.0
 _ZN7KNSCore6Author5setIdERK7QString@Base 5.69.0
 _ZN7KNSCore6Author7setNameERK7QString@Base 5.54.0
 _ZN7KNSCore6Author8setEmailERK7QString@Base 5.54.0
 _ZN7KNSCore6Author9setJabberERK7QString@Base 5.54.0
 _ZN7KNSCore6AuthorC1ERKS0_@Base 5.69.0
 _ZN7KNSCore6AuthorC1Ev@Base 5.69.0
 _ZN7KNSCore6AuthorC2ERKS0_@Base 5.69.0
 _ZN7KNSCore6AuthorC2Ev@Base 5.69.0
 _ZN7KNSCore6AuthorD1Ev@Base 5.69.0
 _ZN7KNSCore6AuthorD2Ev@Base 5.69.0
 _ZN7KNSCore6Engine10adoptEntryERKNS_13EntryInternalE@Base 5.77.0
 _ZN7KNSCore6Engine10jobStartedEP4KJobRK7QString@Base 5.54.0
 _ZN7KNSCore6Engine10signalBusyERK7QString@Base 5.54.0
 _ZN7KNSCore6Engine10signalIdleERK7QString@Base 5.54.0
 _ZN7KNSCore6Engine11addProviderE14QSharedPointerINS_8ProviderEE@Base 5.54.0
 _ZN7KNSCore6Engine11loadDetailsERKNS_13EntryInternalE@Base 5.54.0
 _ZN7KNSCore6Engine11loadPreviewERKNS_13EntryInternalENS1_11PreviewTypeE@Base 5.54.0
 _ZN7KNSCore6Engine11qt_metacallEN11QMetaObject4CallEiPPv@Base 5.54.0
 _ZN7KNSCore6Engine11qt_metacastEPKc@Base 5.54.0
 _ZN7KNSCore6Engine11requestDataEii@Base 5.54.0
 _ZN7KNSCore6Engine11setPageSizeEi@Base 5.54.0
 _ZN7KNSCore6Engine11setSortModeENS_8Provider8SortModeE@Base 5.54.0
 _ZN7KNSCore6Engine11signalErrorERK7QString@Base 5.54.0
 _ZN7KNSCore6Engine11storeSearchEv@Base 5.80.0
 _ZN7KNSCore6Engine11userCanVoteERKNS_13EntryInternalE@Base 5.54.0
 _ZN7KNSCore6Engine12addTagFilterERK7QString@Base 5.54.0
 _ZN7KNSCore6Engine12setBusyStateE6QFlagsINS0_13BusyOperationEE@Base 5.74.0
 _ZN7KNSCore6Engine12setTagFilterERK11QStringList@Base 5.54.0
 _ZN7KNSCore6Engine12updateStatusEv@Base 5.54.0
 _ZN7KNSCore6Engine13contactAuthorERKNS_13EntryInternalE@Base 5.54.0
 _ZN7KNSCore6Engine13loadProvidersEv@Base 5.54.0
 _ZN7KNSCore6Engine13reloadEntriesEv@Base 5.54.0
 _ZN7KNSCore6Engine13restoreSearchEv@Base 5.80.0
 _ZN7KNSCore6Engine13searchPresetsEv@Base 5.83.0
 _ZN7KNSCore6Engine13setSearchTermERK7QString@Base 5.54.0
 _ZN7KNSCore6Engine13signalMessageERK7QString@Base 5.54.0
 _ZN7KNSCore6Engine14fetchEntryByIdERK7QString@Base 5.54.0
 _ZN7KNSCore6Engine14setBusyMessageERK7QString@Base 5.74.0
 _ZN7KNSCore6Engine15checkForUpdatesEv@Base 5.54.0
 _ZN7KNSCore6Engine15requestMoreDataEv@Base 5.54.0
 _ZN7KNSCore6Engine15signalErrorCodeERKNS_9ErrorCodeERK7QStringRK8QVariant@Base 5.54.0
 _ZN7KNSCore6Engine15signalResetViewEv@Base 5.54.0
 _ZN7KNSCore6Engine15useLabelChangedEv@Base 5.77.0
 _ZN7KNSCore6Engine16busyStateChangedEv@Base 5.74.0
 _ZN7KNSCore6Engine16commentsForEntryERKNS_13EntryInternalE@Base 5.69.0
 _ZN7KNSCore6Engine16providersChangedEv@Base 5.90.0
 _ZN7KNSCore6Engine16signalEntryEventERKNS_13EntryInternalENS1_10EntryEventE@Base 5.77.0
 _ZN7KNSCore6Engine16slotEntryChangedERKNS_13EntryInternalE@Base 5.54.0
 _ZN7KNSCore6Engine16staticMetaObjectE@Base 5.54.0
 _ZN7KNSCore6Engine16userCanBecomeFanERKNS_13EntryInternalE@Base 5.54.0
 _ZN7KNSCore6Engine17checkForInstalledEv@Base 5.54.0
 _ZN7KNSCore6Engine17slotEntriesLoadedERKNS_8Provider13SearchRequestE5QListINS_13EntryInternalEE@Base 5.54.0
 _ZN7KNSCore6Engine17slotPreviewLoadedERKNS_13EntryInternalENS1_11PreviewTypeE@Base 5.54.0
 _ZN7KNSCore6Engine18busyMessageChangedEv@Base 5.74.0
 _ZN7KNSCore6Engine18categoriesMetadataEv@Base 5.54.0
 _ZN7KNSCore6Engine18downloadLinkLoadedERKNS_13EntryInternalE@Base 5.54.0
 _ZN7KNSCore6Engine18providerJobStartedEP4KJob@Base 5.54.0
 _ZN7KNSCore6Engine18signalEntryChangedERKNS_13EntryInternalE@Base 5.54.0
 _ZN7KNSCore6Engine19providerInitializedEPNS_8ProviderE@Base 5.54.0
 _ZN7KNSCore6Engine19setCategoriesFilterERK11QStringList@Base 5.54.0
 _ZN7KNSCore6Engine19signalEntriesLoadedERK5QListINS_13EntryInternalEE@Base 5.54.0
 _ZN7KNSCore6Engine19signalPreviewFailedEv@Base 5.54.0
 _ZN7KNSCore6Engine19slotProvidersFailedEv@Base 5.54.0
 _ZN7KNSCore6Engine20addDownloadTagFilterERK7QString@Base 5.54.0
 _ZN7KNSCore6Engine20atticaProviderLoadedERKN6Attica8ProviderE@Base 5.54.0
 _ZN7KNSCore6Engine20availableConfigFilesEv@Base 5.83.0
 _ZN7KNSCore6Engine20setDownloadTagFilterERK11QStringList@Base 5.54.0
 _ZN7KNSCore6Engine20uploadEnabledChangedEv@Base 5.90.0
 _ZN7KNSCore6Engine21configSearchLocationsEb@Base 5.61.0
 _ZN7KNSCore6Engine21signalProvidersLoadedEv@Base 5.54.0
 _ZN7KNSCore6Engine22revalidateCacheEntriesEv@Base 5.74.0
 _ZN7KNSCore6Engine22slotEntryDetailsLoadedERKNS_13EntryInternalE@Base 5.54.0
 _ZN7KNSCore6Engine22slotInstallationFailedERK7QString@Base 5.54.0
 _ZN7KNSCore6Engine22slotProviderFileLoadedERK12QDomDocument@Base 5.54.0
 _ZN7KNSCore6Engine22slotSearchTimerExpiredEv@Base 5.54.0
 _ZN7KNSCore6Engine23signalEntryUploadFailedEv@Base 5.54.0
 _ZN7KNSCore6Engine24signalDownloadDialogDoneE5QListINS_13EntryInternalEE@Base 5.54.0
 _ZN7KNSCore6Engine24signalEntryDetailsLoadedERKNS_13EntryInternalE@Base 5.54.0
 _ZN7KNSCore6Engine24signalEntryPreviewLoadedERKNS_13EntryInternalENS1_11PreviewTypeE@Base 5.54.0
 _ZN7KNSCore6Engine24slotInstallationFinishedEv@Base 5.54.0
 _ZN7KNSCore6Engine25setConfigLocationFallbackEb@Base 5.61.0
 _ZN7KNSCore6Engine25signalEntryUploadFinishedEv@Base 5.54.0
 _ZN7KNSCore6Engine25signalSearchPresetsLoadedERK5QListINS_8Provider12SearchPresetEE@Base 5.83.0
 _ZN7KNSCore6Engine29signalCategoriesMetadataLodedERK5QListINS_8Provider16CategoryMetadataEE@Base 5.54.0
 _ZN7KNSCore6Engine29signalUpdateableEntriesLoadedERK5QListINS_13EntryInternalEE@Base 5.54.0
 _ZN7KNSCore6Engine4initERK7QString@Base 5.54.0
 _ZN7KNSCore6Engine4voteERKNS_13EntryInternalEj@Base 5.54.0
 _ZN7KNSCore6Engine7installENS_13EntryInternalEi@Base 5.54.0
 _ZN7KNSCore6Engine7setBusyE6QFlagsINS0_13BusyOperationEERK7QString@Base 5.74.0
 _ZN7KNSCore6Engine9becomeFanERKNS_13EntryInternalE@Base 5.54.0
 _ZN7KNSCore6Engine9doRequestEv@Base 5.54.0
 _ZN7KNSCore6Engine9setFilterENS_8Provider6FilterE@Base 5.54.0
 _ZN7KNSCore6Engine9uninstallENS_13EntryInternalE@Base 5.54.0
 _ZN7KNSCore6EngineC1EP7QObject@Base 5.54.0
 _ZN7KNSCore6EngineC2EP7QObject@Base 5.54.0
 _ZN7KNSCore6EngineD0Ev@Base 5.54.0
 _ZN7KNSCore6EngineD1Ev@Base 5.54.0
 _ZN7KNSCore6EngineD2Ev@Base 5.54.0
 _ZN7KNSCore8Provider10loadBasicsEv@Base 5.90.0
 _ZN7KNSCore8Provider10loadPersonERK7QString@Base 5.69.0
 _ZN7KNSCore8Provider10setVersionERK7QString@Base 5.90.0
 _ZN7KNSCore8Provider10setWebsiteERK4QUrl@Base 5.90.0
 _ZN7KNSCore8Provider11qt_metacallEN11QMetaObject4CallEiPPv@Base 5.54.0
 _ZN7KNSCore8Provider11qt_metacastEPKc@Base 5.54.0
 _ZN7KNSCore8Provider12basicsLoadedEv@Base 5.90.0
 _ZN7KNSCore8Provider12loadCommentsERKNS_13EntryInternalEii@Base 5.69.0
 _ZN7KNSCore8Provider12personLoadedESt10shared_ptrINS_6AuthorEE@Base 5.69.0
 _ZN7KNSCore8Provider12setTagFilterERK11QStringList@Base 5.54.0
 _ZN7KNSCore8Provider13loadingFailedERKNS0_13SearchRequestE@Base 5.54.0
 _ZN7KNSCore8Provider14commentsLoadedE5QListISt10shared_ptrINS_7CommentEEE@Base 5.69.0
 _ZN7KNSCore8Provider14setSupportsSslEb@Base 5.90.0
 _ZN7KNSCore8Provider15setContactEmailERK7QString@Base 5.90.0
 _ZN7KNSCore8Provider16staticMetaObjectE@Base 5.54.0
 _ZN7KNSCore8Provider17payloadLinkLoadedERKNS_13EntryInternalE@Base 5.54.0
 _ZN7KNSCore8Provider18entryDetailsLoadedERKNS_13EntryInternalE@Base 5.54.0
 _ZN7KNSCore8Provider19providerInitializedEPS0_@Base 5.54.0
 _ZN7KNSCore8Provider19searchPresetsLoadedERK5QListINS0_12SearchPresetEE@Base 5.83.0
 _ZN7KNSCore8Provider20setDownloadTagFilterERK11QStringList@Base 5.54.0
 _ZN7KNSCore8Provider23categoriesMetadataLodedERK5QListINS0_16CategoryMetadataEE@Base 5.54.0
 _ZN7KNSCore8Provider7setHostERK4QUrl@Base 5.90.0
 _ZN7KNSCore8ProviderC1Ev@Base 5.54.0
 _ZN7KNSCore8ProviderC2Ev@Base 5.54.0
 _ZN7KNSCore8ProviderD0Ev@Base 5.54.0
 _ZN7KNSCore8ProviderD1Ev@Base 5.54.0
 _ZN7KNSCore8ProviderD2Ev@Base 5.54.0
 _ZN7KNSCore8Question11qt_metacallEN11QMetaObject4CallEiPPv@Base 5.54.0
 _ZN7KNSCore8Question11qt_metacastEPKc@Base 5.54.0
 _ZN7KNSCore8Question11setQuestionERK7QString@Base 5.54.0
 _ZN7KNSCore8Question11setResponseENS0_8ResponseE@Base 5.54.0
 _ZN7KNSCore8Question11setResponseERK7QString@Base 5.54.0
 _ZN7KNSCore8Question15setQuestionTypeENS0_12QuestionTypeE@Base 5.54.0
 _ZN7KNSCore8Question16staticMetaObjectE@Base 5.54.0
 _ZN7KNSCore8Question3askEv@Base 5.54.0
 _ZN7KNSCore8Question7setListERK11QStringList@Base 5.54.0
 _ZN7KNSCore8Question8setEntryERKNS_13EntryInternalE@Base 5.102.0
 _ZN7KNSCore8Question8setTitleERK7QString@Base 5.54.0
 _ZN7KNSCore8QuestionC1ENS0_12QuestionTypeEP7QObject@Base 5.54.0
 _ZN7KNSCore8QuestionC2ENS0_12QuestionTypeEP7QObject@Base 5.54.0
 _ZN7KNSCore8QuestionD0Ev@Base 5.54.0
 _ZN7KNSCore8QuestionD1Ev@Base 5.54.0
 _ZN7KNSCore8QuestionD2Ev@Base 5.54.0
 _ZN7KNSCore8Security10fileSignedEi@Base 5.54.0
 _ZN7KNSCore8Security11qt_metacallEN11QMetaObject4CallEiPPv@Base 5.54.0
 _ZN7KNSCore8Security11qt_metacastEPKc@Base 5.54.0
 _ZN7KNSCore8Security12slotFinishedEiN8QProcess10ExitStatusE@Base 5.54.0
 _ZN7KNSCore8Security12slotSignFileEv@Base 5.54.0
 _ZN7KNSCore8Security13checkValidityERK7QString@Base 5.54.0
 _ZN7KNSCore8Security14readSecretKeysEv@Base 5.54.0
 _ZN7KNSCore8Security14validityResultEi@Base 5.54.0
 _ZN7KNSCore8Security16staticMetaObjectE@Base 5.54.0
 _ZN7KNSCore8Security17slotCheckValidityEv@Base 5.54.0
 _ZN7KNSCore8Security27slotReadyReadStandardOutputEv@Base 5.54.0
 _ZN7KNSCore8Security8readKeysEv@Base 5.54.0
 _ZN7KNSCore8Security8signFileERK7QString@Base 5.54.0
 _ZN7KNSCore8SecurityC1Ev@Base 5.54.0
 _ZN7KNSCore8SecurityC2Ev@Base 5.54.0
 _ZN7KNSCore8SecurityD0Ev@Base 5.54.0
 _ZN7KNSCore8SecurityD1Ev@Base 5.54.0
 _ZN7KNSCore8SecurityD2Ev@Base 5.54.0
 _ZN7KNSCore9XmlLoader10jobStartedEP4KJob@Base 5.54.0
 _ZN7KNSCore9XmlLoader11qt_metacallEN11QMetaObject4CallEiPPv@Base 5.54.0
 _ZN7KNSCore9XmlLoader11qt_metacastEPKc@Base 5.54.0
 _ZN7KNSCore9XmlLoader11slotJobDataEP4KJobRK10QByteArray@Base 5.54.0
 _ZN7KNSCore9XmlLoader12signalFailedEv@Base 5.54.0
 _ZN7KNSCore9XmlLoader12signalLoadedERK12QDomDocument@Base 5.54.0
 _ZN7KNSCore9XmlLoader13slotJobResultEP4KJob@Base 5.54.0
 _ZN7KNSCore9XmlLoader15signalHttpErrorEi5QListI5QPairI10QByteArrayS3_EE@Base 5.90.0
 _ZN7KNSCore9XmlLoader16staticMetaObjectE@Base 5.54.0
 _ZN7KNSCore9XmlLoader4loadERK4QUrl@Base 5.54.0
 _ZN7KNSCore9XmlLoaderC1EP7QObject@Base 5.54.0
 _ZN7KNSCore9XmlLoaderC2EP7QObject@Base 5.54.0
 _ZN7KNSCorelsE6QDebugRKNS_8Provider13SearchRequestE@Base 5.54.0
 (optional=templinst)_ZNK12KConfigGroup9readEntryIbEET_PKcRKS1_@Base 5.54.0
 _ZNK7KNSCore10ItemsModel10metaObjectEv@Base 5.54.0
 _ZNK7KNSCore10ItemsModel16hasPreviewImagesEv@Base 5.54.0
 _ZNK7KNSCore10ItemsModel3rowERKNS_13EntryInternalE@Base 5.69.0
 _ZNK7KNSCore10ItemsModel4dataERK11QModelIndexi@Base 5.54.0
 _ZNK7KNSCore10ItemsModel8rowCountERK11QModelIndex@Base 5.54.0
 _ZNK7KNSCore12AtticaHelper10metaObjectEv@Base 5.54.0
 _ZNK7KNSCore12EntryWrapper10metaObjectEv@Base 5.69.0
 _ZNK7KNSCore12EntryWrapper5entryEv@Base 5.69.0
 _ZNK7KNSCore12Installation10metaObjectEv@Base 5.54.0
 _ZNK7KNSCore12Installation11signalErrorERK7QString@Base 5.54.0
 _ZNK7KNSCore12Installation17signalInformationERK7QString@Base 5.54.0
 _ZNK7KNSCore12Installation20uncompressionSettingEv@Base 5.74.0
 _ZNK7KNSCore12Installation22targetInstallationPathEv@Base 5.54.0
 _ZNK7KNSCore12Installation8isRemoteEv@Base 5.54.0
 _ZNK7KNSCore13CommentsModel10metaObjectEv@Base 5.69.0
 _ZNK7KNSCore13CommentsModel12canFetchMoreERK11QModelIndex@Base 5.69.0
 _ZNK7KNSCore13CommentsModel4dataERK11QModelIndexi@Base 5.69.0
 _ZNK7KNSCore13CommentsModel5entryEv@Base 5.69.0
 _ZNK7KNSCore13CommentsModel8rowCountERK11QModelIndex@Base 5.69.0
 _ZNK7KNSCore13CommentsModel9roleNamesEv@Base 5.69.0
 _ZNK7KNSCore13EntryInternal10numberFansEv@Base 5.54.0
 _ZNK7KNSCore13EntryInternal10previewUrlENS0_11PreviewTypeE@Base 5.54.0
 _ZNK7KNSCore13EntryInternal10providerIdEv@Base 5.54.0
 _ZNK7KNSCore13EntryInternal11releaseDateEv@Base 5.54.0
 _ZNK7KNSCore13EntryInternal12donationLinkEv@Base 5.54.0
 _ZNK7KNSCore13EntryInternal12previewImageENS0_11PreviewTypeE@Base 5.54.0
 _ZNK7KNSCore13EntryInternal12shortSummaryEv@Base 5.54.0
 _ZNK7KNSCore13EntryInternal13downloadCountEv@Base 5.54.0
 _ZNK7KNSCore13EntryInternal13updateVersionEv@Base 5.54.0
 _ZNK7KNSCore13EntryInternal14installedFilesEv@Base 5.54.0
 _ZNK7KNSCore13EntryInternal16numberOfCommentsEv@Base 5.54.0
 _ZNK7KNSCore13EntryInternal16uninstalledFilesEv@Base 5.54.0
 _ZNK7KNSCore13EntryInternal17downloadLinkCountEv@Base 5.54.0
 _ZNK7KNSCore13EntryInternal17knowledgebaseLinkEv@Base 5.54.0
 _ZNK7KNSCore13EntryInternal17updateReleaseDateEv@Base 5.54.0
 _ZNK7KNSCore13EntryInternal26numberKnowledgebaseEntriesEv@Base 5.54.0
 _ZNK7KNSCore13EntryInternal27downloadLinkInformationListEv@Base 5.54.0
 _ZNK7KNSCore13EntryInternal4nameEv@Base 5.54.0
 _ZNK7KNSCore13EntryInternal4tagsEv@Base 5.54.0
 _ZNK7KNSCore13EntryInternal6authorEv@Base 5.54.0
 _ZNK7KNSCore13EntryInternal6ratingEv@Base 5.54.0
 _ZNK7KNSCore13EntryInternal6sourceEv@Base 5.54.0
 _ZNK7KNSCore13EntryInternal6statusEv@Base 5.54.0
 _ZNK7KNSCore13EntryInternal7isValidEv@Base 5.54.0
 _ZNK7KNSCore13EntryInternal7licenseEv@Base 5.54.0
 _ZNK7KNSCore13EntryInternal7payloadEv@Base 5.54.0
 _ZNK7KNSCore13EntryInternal7summaryEv@Base 5.54.0
 _ZNK7KNSCore13EntryInternal7versionEv@Base 5.54.0
 _ZNK7KNSCore13EntryInternal8categoryEv@Base 5.54.0
 _ZNK7KNSCore13EntryInternal8entryXMLEv@Base 5.54.0
 _ZNK7KNSCore13EntryInternal8homepageEv@Base 5.54.0
 _ZNK7KNSCore13EntryInternal8uniqueIdEv@Base 5.54.0
 _ZNK7KNSCore13EntryInternal9changelogEv@Base 5.54.0
 _ZNK7KNSCore13EntryInternal9entryTypeEv@Base 5.83.0
 _ZNK7KNSCore13EntryInternaleqERKS0_@Base 5.54.0
 _ZNK7KNSCore13EntryInternalltERKS0_@Base 5.54.0
 _ZNK7KNSCore14ProvidersModel10metaObjectEv@Base 5.90.0
 _ZNK7KNSCore14ProvidersModel4dataERK11QModelIndexi@Base 5.90.0
 _ZNK7KNSCore14ProvidersModel6engineEv@Base 5.90.0
 _ZNK7KNSCore14ProvidersModel8rowCountERK11QModelIndex@Base 5.90.0
 _ZNK7KNSCore14ProvidersModel9roleNamesEv@Base 5.90.0
 _ZNK7KNSCore15DownloadManager10metaObjectEv@Base 5.54.0
 _ZNK7KNSCore15QuestionManager10metaObjectEv@Base 5.54.0
 _ZNK7KNSCore16QuestionListener10metaObjectEv@Base 5.54.0
 _ZNK7KNSCore5Cache10metaObjectEv@Base 5.54.0
 _ZNK7KNSCore5Cache22entryFromInstalledFileERK7QString@Base 5.74.0
 _ZNK7KNSCore5Cache8registryEv@Base 5.90.0
 _ZNK7KNSCore6Author11descriptionEv@Base 5.69.0
 _ZNK7KNSCore6Author11profilepageEv@Base 5.69.0
 _ZNK7KNSCore6Author2idEv@Base 5.69.0
 _ZNK7KNSCore6Author4nameEv@Base 5.54.0
 _ZNK7KNSCore6Author5emailEv@Base 5.54.0
 _ZNK7KNSCore6Author6jabberEv@Base 5.54.0
 _ZNK7KNSCore6Author8homepageEv@Base 5.54.0
 _ZNK7KNSCore6Author9avatarUrlEv@Base 5.69.0
 _ZNK7KNSCore6Engine10categoriesEv@Base 5.54.0
 _ZNK7KNSCore6Engine10metaObjectEv@Base 5.54.0
 _ZNK7KNSCore6Engine10searchTermEv@Base 5.69.0
 _ZNK7KNSCore6Engine11busyMessageEv@Base 5.74.0
 _ZNK7KNSCore6Engine11providerIDsEv@Base 5.90.0
 _ZNK7KNSCore6Engine13uploadEnabledEv@Base 5.90.0
 _ZNK7KNSCore6Engine15adoptionCommandERKNS_13EntryInternalE@Base 5.54.0
 _ZNK7KNSCore6Engine15atticaProvidersEv@Base 5.93.0
 _ZNK7KNSCore6Engine15defaultProviderEv@Base 5.69.0
 _ZNK7KNSCore6Engine16categoriesFilterEv@Base 5.54.0
 _ZNK7KNSCore6Engine17downloadTagFilterEv@Base 5.54.0
 _ZNK7KNSCore6Engine18hasAdoptionCommandEv@Base 5.54.0
 _ZNK7KNSCore6Engine4nameEv@Base 5.69.0
 _ZNK7KNSCore6Engine5cacheEv@Base 5.74.0
 _ZNK7KNSCore6Engine6filterEv@Base 5.69.0
 _ZNK7KNSCore6Engine8pageSizeEv@Base 5.96.0
 _ZNK7KNSCore6Engine8providerERK7QString@Base 5.69.0
 _ZNK7KNSCore6Engine8sortModeEv@Base 5.69.0
 _ZNK7KNSCore6Engine8useLabelEv@Base 5.77.0
 _ZNK7KNSCore6Engine9busyStateEv@Base 5.74.0
 _ZNK7KNSCore6Engine9tagFilterEv@Base 5.54.0
 _ZNK7KNSCore8Provider10metaObjectEv@Base 5.54.0
 _ZNK7KNSCore8Provider11signalErrorERK7QString@Base 5.54.0
 _ZNK7KNSCore8Provider11supportsSslEv@Base 5.90.0
 _ZNK7KNSCore8Provider12contactEmailEv@Base 5.90.0
 _ZNK7KNSCore8Provider13SearchRequest14hashForRequestEv@Base 5.54.0
 _ZNK7KNSCore8Provider15loadingFinishedERKNS0_13SearchRequestERK5QListINS_13EntryInternalEE@Base 5.54.0
 _ZNK7KNSCore8Provider15signalErrorCodeERKNS_9ErrorCodeERK7QStringRK8QVariant@Base 5.54.0
 _ZNK7KNSCore8Provider17downloadTagFilterEv@Base 5.54.0
 _ZNK7KNSCore8Provider17signalInformationERK7QString@Base 5.54.0
 _ZNK7KNSCore8Provider4hostEv@Base 5.90.0
 _ZNK7KNSCore8Provider4iconEv@Base 5.54.0
 _ZNK7KNSCore8Provider4nameEv@Base 5.54.0
 _ZNK7KNSCore8Provider7versionEv@Base 5.90.0
 _ZNK7KNSCore8Provider7websiteEv@Base 5.90.0
 _ZNK7KNSCore8Provider9tagFilterEv@Base 5.54.0
 _ZNK7KNSCore8Question10metaObjectEv@Base 5.54.0
 _ZNK7KNSCore8Question12questionTypeEv@Base 5.54.0
 _ZNK7KNSCore8Question4listEv@Base 5.54.0
 _ZNK7KNSCore8Question5entryEv@Base 5.102.0
 _ZNK7KNSCore8Question5titleEv@Base 5.54.0
 _ZNK7KNSCore8Question8questionEv@Base 5.54.0
 _ZNK7KNSCore8Question8responseEv@Base 5.54.0
 _ZNK7KNSCore8Security10metaObjectEv@Base 5.54.0
 _ZNK7KNSCore8Security11signalErrorERK7QString@Base 5.54.0
 _ZNK7KNSCore8Security17signalInformationERK7QString@Base 5.54.0
 _ZNK7KNSCore9XmlLoader10metaObjectEv@Base 5.54.0
 _ZTIN11Syndication4Atom4LinkE@Base 5.90.0
 _ZTIN11Syndication4Atom6PersonE@Base 5.90.0
 _ZTIN7KNSCore10ItemsModelE@Base 5.54.0
 _ZTIN7KNSCore12AtticaHelperE@Base 5.54.0
 _ZTIN7KNSCore12EntryWrapperE@Base 5.69.0
 _ZTIN7KNSCore12InstallationE@Base 5.54.0
 _ZTIN7KNSCore13CommentsModelE@Base 5.69.0
 _ZTIN7KNSCore14ProvidersModelE@Base 5.90.0
 _ZTIN7KNSCore15DownloadManagerE@Base 5.54.0
 _ZTIN7KNSCore15QuestionManagerE@Base 5.54.0
 _ZTIN7KNSCore16QuestionListenerE@Base 5.54.0
 _ZTIN7KNSCore5CacheE@Base 5.54.0
 _ZTIN7KNSCore6EngineE@Base 5.54.0
 _ZTIN7KNSCore8ProviderE@Base 5.54.0
 _ZTIN7KNSCore8QuestionE@Base 5.54.0
 _ZTIN7KNSCore8SecurityE@Base 5.54.0
 _ZTIN7KNSCore9XmlLoaderE@Base 5.54.0
 (optional=templinst|arch=armel riscv64)_ZTIN9__gnu_cxx7__mutexE@Base 5.69.0
 (optional=templinst|arch=armel riscv64)_ZTISt11_Mutex_baseILN9__gnu_cxx12_Lock_policyE1EE@Base 5.69.0
 (optional=templinst|arch=!armel !riscv64)_ZTISt11_Mutex_baseILN9__gnu_cxx12_Lock_policyE2EE@Base 5.69.0
 (optional=templinst|arch=armel riscv64)_ZTISt16_Sp_counted_baseILN9__gnu_cxx12_Lock_policyE1EE@Base 5.69.0
 (optional=templinst|arch=!armel !riscv64)_ZTISt16_Sp_counted_baseILN9__gnu_cxx12_Lock_policyE2EE@Base 5.69.0
 (optional=templinst|arch=!alpha !amd64 !arm64 !hurd-i386 !i386 !mips64el !mipsel !powerpc !ppc64 !ppc64el !riscv64 !s390x !x32)_ZTISt19_Sp_make_shared_tag@Base 5.69.0
 (optional=templinst|arch=armel riscv64)_ZTISt23_Sp_counted_ptr_inplaceIN7KNSCore6AuthorESaIvELN9__gnu_cxx12_Lock_policyE1EE@Base 5.69.0
 (optional=templinst|arch=!armel !riscv64)_ZTISt23_Sp_counted_ptr_inplaceIN7KNSCore6AuthorESaIvELN9__gnu_cxx12_Lock_policyE2EE@Base 5.69.0
 _ZTSN11Syndication4Atom4LinkE@Base 5.90.0
 _ZTSN11Syndication4Atom6PersonE@Base 5.90.0
 _ZTSN7KNSCore10ItemsModelE@Base 5.54.0
 _ZTSN7KNSCore12AtticaHelperE@Base 5.54.0
 _ZTSN7KNSCore12EntryWrapperE@Base 5.69.0
 _ZTSN7KNSCore12InstallationE@Base 5.54.0
 _ZTSN7KNSCore13CommentsModelE@Base 5.69.0
 _ZTSN7KNSCore14ProvidersModelE@Base 5.90.0
 _ZTSN7KNSCore15DownloadManagerE@Base 5.54.0
 _ZTSN7KNSCore15QuestionManagerE@Base 5.54.0
 _ZTSN7KNSCore16QuestionListenerE@Base 5.54.0
 _ZTSN7KNSCore5CacheE@Base 5.54.0
 _ZTSN7KNSCore6EngineE@Base 5.54.0
 _ZTSN7KNSCore8ProviderE@Base 5.54.0
 _ZTSN7KNSCore8QuestionE@Base 5.54.0
 _ZTSN7KNSCore8SecurityE@Base 5.54.0
 _ZTSN7KNSCore9XmlLoaderE@Base 5.54.0
 (optional=templinst|arch=armel riscv64)_ZTSN9__gnu_cxx7__mutexE@Base 5.69.0
 (optional=templinst|arch=armel riscv64)_ZTSSt11_Mutex_baseILN9__gnu_cxx12_Lock_policyE1EE@Base 5.69.0
 (optional=templinst|arch=!armel !riscv64)_ZTSSt11_Mutex_baseILN9__gnu_cxx12_Lock_policyE2EE@Base 5.69.0
 (optional=templinst|arch=armel riscv64)_ZTSSt16_Sp_counted_baseILN9__gnu_cxx12_Lock_policyE1EE@Base 5.69.0
 (optional=templinst|arch=!armel !riscv64)_ZTSSt16_Sp_counted_baseILN9__gnu_cxx12_Lock_policyE2EE@Base 5.69.0
 (optional=templinst)_ZTSSt19_Sp_make_shared_tag@Base 5.69.0
 (optional=templinst|arch=armel riscv64)_ZTSSt23_Sp_counted_ptr_inplaceIN7KNSCore6AuthorESaIvELN9__gnu_cxx12_Lock_policyE1EE@Base 5.69.0
 (optional=templinst|arch=!armel !riscv64)_ZTSSt23_Sp_counted_ptr_inplaceIN7KNSCore6AuthorESaIvELN9__gnu_cxx12_Lock_policyE2EE@Base 5.69.0
 _ZTVN11Syndication4Atom4LinkE@Base 5.90.0
 _ZTVN11Syndication4Atom6PersonE@Base 5.90.0
 _ZTVN7KNSCore10ItemsModelE@Base 5.54.0
 _ZTVN7KNSCore12AtticaHelperE@Base 5.54.0
 _ZTVN7KNSCore12EntryWrapperE@Base 5.69.0
 _ZTVN7KNSCore12InstallationE@Base 5.54.0
 _ZTVN7KNSCore13CommentsModelE@Base 5.69.0
 _ZTVN7KNSCore14ProvidersModelE@Base 5.90.0
 _ZTVN7KNSCore15DownloadManagerE@Base 5.54.0
 _ZTVN7KNSCore15QuestionManagerE@Base 5.54.0
 _ZTVN7KNSCore16QuestionListenerE@Base 5.54.0
 _ZTVN7KNSCore5CacheE@Base 5.54.0
 _ZTVN7KNSCore6EngineE@Base 5.54.0
 _ZTVN7KNSCore8ProviderE@Base 5.54.0
 _ZTVN7KNSCore8QuestionE@Base 5.54.0
 _ZTVN7KNSCore8SecurityE@Base 5.54.0
 _ZTVN7KNSCore9XmlLoaderE@Base 5.54.0
 (optional=templinst|arch=armel riscv64)_ZTVSt23_Sp_counted_ptr_inplaceIN7KNSCore6AuthorESaIvELN9__gnu_cxx12_Lock_policyE1EE@Base 5.69.0
 (optional=templinst|arch=!armel !riscv64)_ZTVSt23_Sp_counted_ptr_inplaceIN7KNSCore6AuthorESaIvELN9__gnu_cxx12_Lock_policyE2EE@Base 5.69.0
 _ZZNSt19_Sp_make_shared_tag5_S_tiEvE5__tag@Base 5.69.0
