# SymbolsHelper-Confirmed: 5.93.0 amd64
libKF5NewStuffWidgets.so.5 libkf5newstuffwidgets5 #MINVER#
* Build-Depends-Package: libkf5newstuff-dev
 _ZN10KNSWidgets6Action10showDialogEv@Base 5.90.0
 _ZN10KNSWidgets6Action11qt_metacallEN11QMetaObject4CallEiPPv@Base 5.90.0
 _ZN10KNSWidgets6Action11qt_metacastEPKc@Base 5.90.0
 _ZN10KNSWidgets6Action13setConfigFileERK7QString@Base 5.90.0
 _ZN10KNSWidgets6Action14dialogFinishedERK5QListIN4KNS35EntryEE@Base 5.90.0
 _ZN10KNSWidgets6Action14dialogFinishedERK5QListIN7KNSCore13EntryInternalEE@Base 5.93.0
 _ZN10KNSWidgets6Action16staticMetaObjectE@Base 5.90.0
 _ZN10KNSWidgets6Action17aboutToShowDialogEv@Base 5.90.0
 _ZN10KNSWidgets6Action4initEv@Base 5.90.0
 _ZN10KNSWidgets6ActionC1ERK7QStringS3_P7QObject@Base 5.90.0
 _ZN10KNSWidgets6ActionC2ERK7QStringS3_P7QObject@Base 5.90.0
 _ZN10KNSWidgets6ActionD0Ev@Base 5.90.0
 _ZN10KNSWidgets6ActionD1Ev@Base 5.90.0
 _ZN10KNSWidgets6ActionD2Ev@Base 5.90.0
 _ZN10KNSWidgets6Button10configFileEv@Base 5.93.0
 _ZN10KNSWidgets6Button10showDialogEv@Base 5.93.0
 _ZN10KNSWidgets6Button11qt_metacallEN11QMetaObject4CallEiPPv@Base 5.93.0
 _ZN10KNSWidgets6Button11qt_metacastEPKc@Base 5.93.0
 _ZN10KNSWidgets6Button13setConfigFileERK7QString@Base 5.93.0
 _ZN10KNSWidgets6Button14dialogFinishedERK5QListIN7KNSCore13EntryInternalEE@Base 5.93.0
 _ZN10KNSWidgets6Button16staticMetaObjectE@Base 5.93.0
 _ZN10KNSWidgets6Button17aboutToShowDialogEv@Base 5.93.0
 _ZN10KNSWidgets6ButtonC1EP7QWidget@Base 5.93.0
 _ZN10KNSWidgets6ButtonC1ERK7QStringS3_P7QWidget@Base 5.93.0
 _ZN10KNSWidgets6ButtonC2EP7QWidget@Base 5.93.0
 _ZN10KNSWidgets6ButtonC2ERK7QStringS3_P7QWidget@Base 5.93.0
 _ZN10KNSWidgets6ButtonD0Ev@Base 5.93.0
 _ZN10KNSWidgets6ButtonD1Ev@Base 5.93.0
 _ZN10KNSWidgets6ButtonD2Ev@Base 5.93.0
 _ZNK10KNSWidgets6Action10metaObjectEv@Base 5.90.0
 _ZNK10KNSWidgets6Button10metaObjectEv@Base 5.93.0
 _ZTIN10KNSWidgets6ActionE@Base 5.90.0
 _ZTIN10KNSWidgets6ButtonE@Base 5.93.0
 _ZTSN10KNSWidgets6ActionE@Base 5.90.0
 _ZTSN10KNSWidgets6ButtonE@Base 5.93.0
 _ZTVN10KNSWidgets6ActionE@Base 5.90.0
 _ZTVN10KNSWidgets6ButtonE@Base 5.93.0
 (c++)"non-virtual thunk to KNSWidgets::Button::~Button()@Base" 5.93.0
